; Function Attrs: nounwind uwtable
define internal void @dissect_hi_dci0_hi_rel8_value(ptr noundef %0, ptr noundef %1) #0 {
  %3 = alloca i32, align 4
  %4 = alloca i32, align 4
  %5 = load i32, ptr @hf_nfapi_resource_block_start, align 4
  %6 = call ptr @ptvcursor_add_ret_uint(ptr noundef %0, i32 noundef %5, i32 noundef 1, i32 noundef 0, ptr noundef nonnull %3) #7
  %7 = load i32, ptr %3, align 4
  %8 = icmp ugt i32 %7, 100
  br i1 %8, label %9, label %11

9:                                                ; preds = %2
  %10 = call ptr (ptr, ptr, ptr, ptr, ...) @expert_add_info_format(ptr noundef %1, ptr noundef %6, ptr noundef nonnull @ei_invalid_range, ptr noundef nonnull @.str.2135) #7
  br label %11

11:                                               ; preds = %9, %2
  %12 = load i32, ptr @hf_nfapi_cyclic_shift_2_for_drms, align 4
  %13 = call ptr @ptvcursor_add_ret_uint(ptr noundef %0, i32 noundef %12, i32 noundef 1, i32 noundef 0, ptr noundef nonnull %3) #7
  %14 = load i32, ptr %3, align 4
  %15 = icmp ugt i32 %14, 7
  br i1 %15, label %16, label %18

16:                                               ; preds = %11
  %17 = call ptr (ptr, ptr, ptr, ptr, ...) @expert_add_info_format(ptr noundef %1, ptr noundef %13, ptr noundef nonnull @ei_invalid_range, ptr noundef nonnull @.str.2082) #7
  br label %18

18:                                               ; preds = %16, %11
  %19 = load i32, ptr @hf_nfapi_hi_value, align 4
  %20 = call ptr @ptvcursor_add_ret_boolean(ptr noundef %0, i32 noundef %19, i32 noundef 1, i32 noundef 0, ptr noundef nonnull %4) #7
  %21 = load i32, ptr %4, align 4
  %22 = icmp sgt i32 %21, 1
  br i1 %22, label %23, label %25

23:                                               ; preds = %18
  %24 = call ptr (ptr, ptr, ptr, ptr, ...) @expert_add_info_format(ptr noundef %1, ptr noundef %20, ptr noundef nonnull @ei_invalid_range, ptr noundef nonnull @.str.2136) #7
  br label %25

25:                                               ; preds = %23, %18
  %26 = load i32, ptr @hf_nfapi_i_phich, align 4
  %27 = call ptr @ptvcursor_add_ret_uint(ptr noundef %0, i32 noundef %26, i32 noundef 1, i32 noundef 0, ptr noundef nonnull %3) #7
  %28 = load i32, ptr %3, align 4
  %29 = icmp ugt i32 %28, 1
  br i1 %29, label %30, label %32

30:                                               ; preds = %25
  %31 = call ptr (ptr, ptr, ptr, ptr, ...) @expert_add_info_format(ptr noundef %1, ptr noundef %27, ptr noundef nonnull @ei_invalid_range, ptr noundef nonnull @.str.2137) #7
  br label %32

32:                                               ; preds = %30, %25
  %33 = load i32, ptr @hf_nfapi_transmission_power, align 4
  %34 = call ptr @ptvcursor_add_ret_uint(ptr noundef %0, i32 noundef %33, i32 noundef 2, i32 noundef 0, ptr noundef nonnull %3) #7
  %35 = load i32, ptr %3, align 4
  %36 = icmp ugt i32 %35, 10000
  br i1 %36, label %37, label %39

37:                                               ; preds = %32
  %38 = call ptr (ptr, ptr, ptr, ptr, ...) @expert_add_info_format(ptr noundef %1, ptr noundef %34, ptr noundef nonnull @ei_invalid_range, ptr noundef nonnull @.str.2037) #7
  br label %39

39:                                               ; preds = %37, %32
  ret void
}